; Function Attrs: norecurse nounwind uwtable
define internal void @_ZN5faiss12_GLOBAL__N_133pairwise_extra_distances_templateINS_14VectorDistanceILNS_10MetricTypeE3EEEEEvT_lPKflS7_Pflll.omp_outlined(ptr noalias nocapture noundef readonly %0, ptr noalias nocapture readnone %1, ptr nocapture noundef nonnull readonly align 8 dereferenceable(8) %2, ptr nocapture noundef nonnull readonly align 8 dereferenceable(8) %3, ptr nocapture noundef nonnull readonly align 8 dereferenceable(8) %4, ptr nocapture noundef nonnull readonly align 8 dereferenceable(8) %5, ptr nocapture noundef nonnull readonly align 8 dereferenceable(8) %6, ptr nocapture noundef nonnull readonly align 8 dereferenceable(8) %7, ptr nocapture noundef nonnull readonly align 8 dereferenceable(8) %8, ptr nocapture noundef nonnull readonly align 8 dereferenceable(16) %9, ptr nocapture noundef nonnull readonly align 8 dereferenceable(8) %10) #4 personality ptr @__gxx_personality_v0 {
  %12 = alloca i64, align 8
  %13 = alloca i64, align 8
  %14 = alloca i64, align 8
  %15 = alloca i32, align 4
  %16 = load i64, ptr %2, align 8
  %17 = icmp sgt i64 %16, 0
  br i1 %17, label %18, label %49

18:                                               ; preds = %11
  %19 = add nsw i64 %16, -1
  store i64 0, ptr %12, align 8
  store i64 %19, ptr %13, align 8
  store i64 1, ptr %14, align 8
  store i32 0, ptr %15, align 4
  %20 = load i32, ptr %0, align 4
  call void @__kmpc_for_static_init_8(ptr nonnull @1, i32 %20, i32 34, ptr nonnull %15, ptr nonnull %12, ptr nonnull %13, ptr nonnull %14, i64 1, i64 1)
  %21 = load i64, ptr %13, align 8
  %22 = call i64 @llvm.smin.i64(i64 %21, i64 %19)
  store i64 %22, ptr %13, align 8
  %23 = load i64, ptr %12, align 8
  %.not31 = icmp sle i64 %23, %22
  %24 = load i64, ptr %8, align 8
  %25 = icmp sgt i64 %24, 0
  %or.cond = select i1 %.not31, i1 %25, i1 false
  br i1 %or.cond, label %.lr.ph34.split, label %._crit_edge35

.lr.ph34.split:                                   ; preds = %18, %._crit_edge
  %26 = phi i64 [ %46, %._crit_edge ], [ %22, %18 ]
  %27 = phi i64 [ %47, %._crit_edge ], [ %24, %18 ]
  %.02732 = phi i64 [ %48, %._crit_edge ], [ %23, %18 ]
  %28 = load ptr, ptr %3, align 8
  %29 = load i64, ptr %4, align 8
  %30 = mul nsw i64 %29, %.02732
  %31 = getelementptr inbounds float, ptr %28, i64 %30
  %32 = load ptr, ptr %6, align 8
  %33 = load i64, ptr %7, align 8
  %34 = mul nsw i64 %33, %.02732
  %35 = getelementptr inbounds float, ptr %32, i64 %34
  %36 = icmp sgt i64 %27, 0
  br i1 %36, label %.lr.ph.preheader, label %._crit_edge

.lr.ph.preheader:                                 ; preds = %.lr.ph34.split
  %37 = load ptr, ptr %5, align 8
  br label %.lr.ph

.lr.ph:                                           ; preds = %.lr.ph.preheader, %_ZNK5faiss14VectorDistanceILNS_10MetricTypeE3EEclEPKfS4_.exit
  %.030 = phi i64 [ %43, %_ZNK5faiss14VectorDistanceILNS_10MetricTypeE3EEclEPKfS4_.exit ], [ 0, %.lr.ph.preheader ]
  %.02829 = phi ptr [ %42, %_ZNK5faiss14VectorDistanceILNS_10MetricTypeE3EEclEPKfS4_.exit ], [ %37, %.lr.ph.preheader ]
  %38 = load i64, ptr %9, align 8
  %39 = invoke noundef float @_ZN5faiss9fvec_LinfEPKfS1_m(ptr noundef %31, ptr noundef %.02829, i64 noundef %38)
          to label %_ZNK5faiss14VectorDistanceILNS_10MetricTypeE3EEclEPKfS4_.exit unwind label %50

_ZNK5faiss14VectorDistanceILNS_10MetricTypeE3EEclEPKfS4_.exit: ; preds = %.lr.ph
  %40 = getelementptr inbounds float, ptr %35, i64 %.030
  store float %39, ptr %40, align 4
  %41 = load i64, ptr %10, align 8
  %42 = getelementptr inbounds float, ptr %.02829, i64 %41
  %43 = add nuw nsw i64 %.030, 1
  %44 = load i64, ptr %8, align 8
  %45 = icmp slt i64 %43, %44
  br i1 %45, label %.lr.ph, label %._crit_edge.loopexit, !llvm.loop !65

._crit_edge.loopexit:                             ; preds = %_ZNK5faiss14VectorDistanceILNS_10MetricTypeE3EEclEPKfS4_.exit
  %.pre = load i64, ptr %13, align 8
  br label %._crit_edge

._crit_edge:                                      ; preds = %._crit_edge.loopexit, %.lr.ph34.split
  %46 = phi i64 [ %.pre, %._crit_edge.loopexit ], [ %26, %.lr.ph34.split ]
  %47 = phi i64 [ %44, %._crit_edge.loopexit ], [ %27, %.lr.ph34.split ]
  %48 = add nsw i64 %.02732, 1
  %.not.not = icmp slt i64 %.02732, %46
  br i1 %.not.not, label %.lr.ph34.split, label %._crit_edge35, !llvm.loop !66

._crit_edge35:                                    ; preds = %._crit_edge, %18
  call void @__kmpc_for_static_fini(ptr nonnull @1, i32 %20)
  br label %49

49:                                               ; preds = %._crit_edge35, %11
  ret void

50:                                               ; preds = %.lr.ph
  %51 = landingpad { ptr, i32 }
          catch ptr null
  %52 = extractvalue { ptr, i32 } %51, 0
  call void @__clang_call_terminate(ptr %52) #22
  unreachable
}